(dp1
S'output'
p2
S"<type 'exceptions.AttributeError'> 'Query' object has no attribute 'type'"
p3
sS'layer'
p4
S'/Users/Joshua/Git Repositories/CMPS 183/web2py/applications/2ndAssignment/controllers/default.py'
p5
sS'code'
p6
S'# -*- coding: utf-8 -*-\n# this file is released under public domain and you can use without limitations\n\nfrom datetime import datetime\nimport calendar\n\ndef index():\n    redirect(URL(\'default\', \'boards\'))\n    return 0\n\ndef boards():\n    rows = db().select(db.boards.ALL, orderby=~db.boards.board_last_updated)\n    for row in rows:\n        row[\'board_pretty_updated\'] = pretty_date(row[\'board_last_updated\'])\n    return dict(boards=rows)\n\ndef board():\n    board = db.boards(request.args(0))\n    posts = db().select(db.posts.board_id == board[\'id\'], orderby=~db.posts.posting_time)\n    return dict(board=board, posts=posts)\n\ndef create_board():\n    db.boards.board_author.readable = db.boards.board_author.writable = False\n    db.boards.board_last_updated.readable = db.boards.board_last_updated.writable = False\n    form=SQLFORM(db.boards)\n    if form.process().accepted:\n        redirect(URL(\'default\', \'boards\'))\n    return dict(form=form)\n\ndef create_post():\n    db.posts.posting_time.readable = db.posts.posting_time.writable = False\n    db.posts.post_author.readable = db.posts.post_author.writable = False\n    db.posts.board_id.readable = db.posts.board_id.writable = False\n    form=SQLFORM(db.posts)\n    if form.process().accepted:\n        redirect(URL(\'default\', \'board\', request.args(0)))\n    return dict(form=form, board=db.boards(request.args(0)))\n\ndef pretty_date(date):\n    month_abr = calendar.month_abbr[date.month]\n    pretty = month_abr + " " + str(date.day) + ", " + str(date.year) + " " + str(date.time())\n    return pretty\n\ndef user():\n    auth.settings.login_next=URL(\'default\', \'boards\')\n    return dict(form=auth())\n\n\n@cache.action()\ndef download():\n    return response.download(request, db)\n\n\ndef call():\n    return service()\n\n\n\nresponse._vars=response._caller(board)\n'
p7
sS'snapshot'
p8
(dp9
sS'traceback'
p10
S'Traceback (most recent call last):\n  File "/Users/Joshua/Git Repositories/CMPS 183/web2py/gluon/restricted.py", line 227, in restricted\n    exec ccode in environment\n  File "/Users/Joshua/Git Repositories/CMPS 183/web2py/applications/2ndAssignment/controllers/default.py", line 59, in <module>\n  File "/Users/Joshua/Git Repositories/CMPS 183/web2py/gluon/globals.py", line 412, in <lambda>\n    self._caller = lambda f: f()\n  File "/Users/Joshua/Git Repositories/CMPS 183/web2py/applications/2ndAssignment/controllers/default.py", line 19, in board\n    posts = db().select(db.posts.board_id == board[\'id\'], orderby=~db.posts.posting_time)\n  File "/Users/Joshua/Git Repositories/CMPS 183/web2py/gluon/packages/dal/pydal/objects.py", line 2002, in select\n    return adapter.select(self.query,fields,attributes)\n  File "/Users/Joshua/Git Repositories/CMPS 183/web2py/gluon/packages/dal/pydal/adapters/sqlite.py", line 122, in select\n    return super(SQLiteAdapter, self).select(query, fields, attributes)\n  File "/Users/Joshua/Git Repositories/CMPS 183/web2py/gluon/packages/dal/pydal/adapters/base.py", line 1273, in select\n    sql = self._select(query, fields, attributes)\n  File "/Users/Joshua/Git Repositories/CMPS 183/web2py/gluon/packages/dal/pydal/adapters/base.py", line 1102, in _select\n    sql_f = \', \'.join(map(geoexpand, fields))\n  File "/Users/Joshua/Git Repositories/CMPS 183/web2py/gluon/packages/dal/pydal/adapters/base.py", line 1099, in geoexpand\n    if isinstance(field.type,str) and field.type.startswith(\'geo\') and isinstance(field, Field):\nAttributeError: \'Query\' object has no attribute \'type\'\n'
p11
s.